target datalayout = "e-m:e-p270:32:32-p271:32:32-p272:64:64-i64:64-i128:128-f80:128-n8:16:32:64-S128"
target triple = "x86_64-pc-linux-gnu"

@.str.1 = private unnamed_addr constant [61 x i8] c"Possible integer overflow in memory allocation (1 * %zu + 1)\00", align 1

; Function Attrs: nounwind uwtable
define noalias ptr @_estrndup(ptr noundef %0, i64 noundef %1) #0 {
  %3 = alloca ptr, align 8
  %4 = alloca i64, align 8
  %5 = alloca ptr, align 8
  store ptr %0, ptr %3, align 8
  store i64 %1, ptr %4, align 8
  %6 = load i64, ptr %4, align 8
  %7 = add i64 %6, 1
  %8 = icmp eq i64 %7, 0
  %9 = xor i1 %8, true
  %10 = xor i1 %9, true
  %11 = zext i1 %10 to i32
  %12 = sext i32 %11 to i64
  %13 = icmp ne i64 %12, 0
  br i1 %13, label %14, label %16

14:                                               ; preds = %2
  %15 = load i64, ptr %4, align 8
  call void (i32, ptr, ...) @zend_error_noreturn(i32 noundef 1, ptr noundef @.str.1, i64 noundef %15) #19
  unreachable

16:                                               ; preds = %2
  %17 = load i64, ptr %4, align 8
  %18 = add i64 %17, 1
  %19 = call noalias ptr @_emalloc(i64 noundef %18) #25
  store ptr %19, ptr %5, align 8
  %20 = load ptr, ptr %5, align 8
  %21 = load ptr, ptr %3, align 8
  %22 = load i64, ptr %4, align 8
  call void @llvm.memcpy.p0.p0.i64(ptr align 1 %20, ptr align 1 %21, i64 %22, i1 false)
  %23 = load ptr, ptr %5, align 8
  %24 = load i64, ptr %4, align 8
  %25 = getelementptr inbounds i8, ptr %23, i64 %24
  store i8 0, ptr %25, align 1
  %26 = load ptr, ptr %5, align 8
  ret ptr %26
}