; Function Attrs: nounwind uwtable
define noalias ptr @_estrndup(ptr nocapture noundef readonly %0, i64 noundef %1) local_unnamed_addr #0 {
  %3 = add i64 %1, 1
  %4 = icmp eq i64 %3, 0
  br i1 %4, label %5, label %6

5:                                                ; preds = %2
  tail call void (i32, ptr, ...) @zend_error_noreturn(i32 noundef 1, ptr noundef nonnull @.str.1, i64 noundef %1) #38
  unreachable

6:                                                ; preds = %2
  %7 = tail call noalias ptr @_emalloc(i64 noundef %3) #42
  tail call void @llvm.memcpy.p0.p0.i64(ptr align 1 %7, ptr align 1 %0, i64 %1, i1 false)
  %8 = getelementptr inbounds i8, ptr %7, i64 %1
  store i8 0, ptr %8, align 1
  ret ptr %7
}